; Function Attrs: mustprogress uwtable
define hidden void @_ZN2qe9conj_enumC2ER11ast_managerP4expr(ptr noundef nonnull align 8 dereferenceable(24) %this, ptr noundef nonnull align 8 dereferenceable(976) %m, ptr noundef %e) unnamed_addr #3 align 2 personality ptr @__gxx_personality_v0 {
entry:
  store ptr %m, ptr %this, align 8
  %m_conjs = getelementptr inbounds i8, ptr %this, i64 8
  %0 = ptrtoint ptr %m to i64
  store i64 %0, ptr %m_conjs, align 8
  %m_nodes.i.i = getelementptr inbounds i8, ptr %this, i64 16
  store ptr null, ptr %m_nodes.i.i, align 8
  invoke void @_Z11flatten_andP4exprR10ref_vectorIS_11ast_managerE(ptr noundef %e, ptr noundef nonnull align 8 dereferenceable(16) %m_conjs)
          to label %invoke.cont unwind label %lpad

invoke.cont:                                      ; preds = %entry
  ret void

lpad:                                             ; preds = %entry
  %1 = landingpad { ptr, i32 }
          cleanup
  tail call void @_ZN10ref_vectorI4expr11ast_managerED2Ev(ptr noundef nonnull align 8 dereferenceable(16) %m_conjs) #24
  resume { ptr, i32 } %1
}